target datalayout = "e-m:e-p270:32:32-p271:32:32-p272:64:64-i64:64-i128:128-f80:128-n8:16:32:64-S128"
target triple = "x86_64-pc-linux-gnu"

@ett_udh = internal global i32 0, align 4
@.str.6 = private unnamed_addr constant [17 x i8] c"User-Data Header\00", align 1
@hf_gsm_sms_dis_field_udh_user_data_header_length = internal global i32 0, align 4
@.str.116 = private unnamed_addr constant [9 x i8] c"Reserved\00", align 1
@hf_gsm_sms_ie_identifier = internal global i32 0, align 4
@hf_gsm_sms_dis_field_ud_iei_length = internal global i32 0, align 4
@hf_gsm_sms_ie_data = internal global i32 0, align 4
@ett_udh_ieis = internal global [256 x i32] zeroinitializer, align 16
@.str.333 = private unnamed_addr constant [7 x i8] c"IE: %s\00", align 1

; Function Attrs: null_pointer_is_valid sspstrong uwtable
define internal void @dis_field_ud_iei(ptr noundef %0, ptr noundef %1, ptr noundef %2, i32 noundef %3, i8 noundef zeroext %4, ptr noundef %5) #0 {
  %7 = alloca ptr, align 8
  %8 = alloca ptr, align 8
  %9 = alloca ptr, align 8
  %10 = alloca i32, align 4
  %11 = alloca i8, align 1
  %12 = alloca ptr, align 8
  %13 = alloca ptr, align 8
  %14 = alloca i8, align 1
  %15 = alloca ptr, align 8
  %16 = alloca i8, align 1
  store ptr %0, ptr %7, align 8
  store ptr %1, ptr %8, align 8
  store ptr %2, ptr %9, align 8
  store i32 %3, ptr %10, align 4
  store i8 %4, ptr %11, align 1
  store ptr %5, ptr %12, align 8
  call void @llvm.lifetime.start.p0(i64 8, ptr %13) #13
  call void @llvm.lifetime.start.p0(i64 1, ptr %14) #13
  call void @llvm.lifetime.start.p0(i64 8, ptr %15) #13
  call void @llvm.lifetime.start.p0(i64 1, ptr %16) #13
  br label %17

17:                                               ; preds = %102, %6
  %18 = load i8, ptr %11, align 1
  %19 = zext i8 %18 to i32
  %20 = icmp sge i32 %19, 2
  br i1 %20, label %21, label %114

21:                                               ; preds = %17
  store ptr null, ptr %13, align 8
  %22 = load ptr, ptr %7, align 8
  %23 = load i32, ptr %10, align 4
  %24 = call zeroext i8 @tvb_get_uint8(ptr noundef %22, i32 noundef %23)
  store i8 %24, ptr %14, align 1
  %25 = load i8, ptr %14, align 1
  %26 = zext i8 %25 to i32
  switch i32 %26, label %46 [
    i32 0, label %27
    i32 1, label %28
    i32 4, label %29
    i32 5, label %30
    i32 6, label %31
    i32 7, label %32
    i32 8, label %33
    i32 10, label %34
    i32 11, label %35
    i32 12, label %36
    i32 13, label %37
    i32 14, label %38
    i32 15, label %39
    i32 16, label %40
    i32 17, label %41
    i32 18, label %42
    i32 19, label %43
    i32 36, label %44
    i32 37, label %45
  ]

27:                                               ; preds = %21
  store ptr @dis_iei_csm8, ptr %13, align 8
  br label %46

28:                                               ; preds = %21
  store ptr @dis_iei_spe_sms_msg_ind, ptr %13, align 8
  br label %46

29:                                               ; preds = %21
  store ptr @dis_iei_apa_8bit, ptr %13, align 8
  br label %46

30:                                               ; preds = %21
  store ptr @dis_iei_apa_16bit, ptr %13, align 8
  br label %46

31:                                               ; preds = %21
  store ptr @dis_iei_scp, ptr %13, align 8
  br label %46

32:                                               ; preds = %21
  store ptr @dis_iei_udh_si, ptr %13, align 8
  br label %46

33:                                               ; preds = %21
  store ptr @dis_iei_csm16, ptr %13, align 8
  br label %46

34:                                               ; preds = %21
  store ptr @dis_iei_tf, ptr %13, align 8
  br label %46

35:                                               ; preds = %21
  store ptr @dis_iei_ps, ptr %13, align 8
  br label %46

36:                                               ; preds = %21
  store ptr @dis_iei_uds, ptr %13, align 8
  br label %46

37:                                               ; preds = %21
  store ptr @dis_iei_pa, ptr %13, align 8
  br label %46

38:                                               ; preds = %21
  store ptr @dis_iei_la, ptr %13, align 8
  br label %46

39:                                               ; preds = %21
  store ptr @dis_iei_sa, ptr %13, align 8
  br label %46

40:                                               ; preds = %21
  store ptr @dis_iei_lp, ptr %13, align 8
  br label %46

41:                                               ; preds = %21
  store ptr @dis_iei_sp, ptr %13, align 8
  br label %46

42:                                               ; preds = %21
  store ptr @dis_iei_vp, ptr %13, align 8
  br label %46

43:                                               ; preds = %21
  store ptr @dis_iei_upi, ptr %13, align 8
  br label %46

44:                                               ; preds = %21
  store ptr @dis_iei_lang_ss, ptr %13, align 8
  br label %46

45:                                               ; preds = %21
  store ptr @dis_iei_lang_ls, ptr %13, align 8
  br label %46

46:                                               ; preds = %21, %45, %44, %43, %42, %41, %40, %39, %38, %37, %36, %35, %34, %33, %32, %31, %30, %29, %28, %27
  %47 = load ptr, ptr %7, align 8
  %48 = load i32, ptr %10, align 4
  %49 = add i32 %48, 1
  %50 = call zeroext i8 @tvb_get_uint8(ptr noundef %47, i32 noundef %49)
  store i8 %50, ptr %16, align 1
  %51 = load ptr, ptr %9, align 8
  %52 = load ptr, ptr %7, align 8
  %53 = load i32, ptr %10, align 4
  %54 = load i8, ptr %16, align 1
  %55 = zext i8 %54 to i32
  %56 = add i32 %55, 2
  %57 = load i8, ptr %14, align 1
  %58 = zext i8 %57 to i64
  %59 = getelementptr [256 x i32], ptr @ett_udh_ieis, i64 0, i64 %58
  %60 = load i32, ptr %59, align 4
  %61 = load i8, ptr %14, align 1
  %62 = zext i8 %61 to i32
  %63 = call ptr @rval_to_str_const(i32 noundef %62, ptr noundef @gsm_sms_tp_ud_ie_id_rvals, ptr noundef @.str.116)
  %64 = call ptr (ptr, ptr, i32, i32, i32, ptr, ptr, ...) @proto_tree_add_subtree_format(ptr noundef %51, ptr noundef %52, i32 noundef %53, i32 noundef %56, i32 noundef %60, ptr noundef null, ptr noundef @.str.333, ptr noundef %63)
  store ptr %64, ptr %15, align 8
  %65 = load ptr, ptr %15, align 8
  %66 = load i32, ptr @hf_gsm_sms_ie_identifier, align 4
  %67 = load ptr, ptr %7, align 8
  %68 = load i32, ptr %10, align 4
  %69 = call ptr @proto_tree_add_item(ptr noundef %65, i32 noundef %66, ptr noundef %67, i32 noundef %68, i32 noundef 1, i32 noundef 0)
  %70 = load i32, ptr %10, align 4
  %71 = add i32 %70, 1
  store i32 %71, ptr %10, align 4
  %72 = load ptr, ptr %15, align 8
  %73 = load i32, ptr @hf_gsm_sms_dis_field_ud_iei_length, align 4
  %74 = load ptr, ptr %7, align 8
  %75 = load i32, ptr %10, align 4
  %76 = call ptr @proto_tree_add_item(ptr noundef %72, i32 noundef %73, ptr noundef %74, i32 noundef %75, i32 noundef 1, i32 noundef 0)
  %77 = load i32, ptr %10, align 4
  %78 = add i32 %77, 1
  store i32 %78, ptr %10, align 4
  %79 = load i8, ptr %16, align 1
  %80 = zext i8 %79 to i32
  %81 = icmp sgt i32 %80, 0
  br i1 %81, label %82, label %102

82:                                               ; preds = %46
  %83 = load ptr, ptr %13, align 8
  %84 = icmp eq ptr %83, null
  br i1 %84, label %85, label %93

85:                                               ; preds = %82
  %86 = load ptr, ptr %15, align 8
  %87 = load i32, ptr @hf_gsm_sms_ie_data, align 4
  %88 = load ptr, ptr %7, align 8
  %89 = load i32, ptr %10, align 4
  %90 = load i8, ptr %16, align 1
  %91 = zext i8 %90 to i32
  %92 = call ptr @proto_tree_add_item(ptr noundef %86, i32 noundef %87, ptr noundef %88, i32 noundef %89, i32 noundef %91, i32 noundef 0)
  br label %101

93:                                               ; preds = %82
  %94 = load ptr, ptr %13, align 8
  %95 = load ptr, ptr %7, align 8
  %96 = load ptr, ptr %8, align 8
  %97 = load ptr, ptr %15, align 8
  %98 = load i32, ptr %10, align 4
  %99 = load i8, ptr %16, align 1
  %100 = load ptr, ptr %12, align 8
  call void %94(ptr noundef %95, ptr noundef %96, ptr noundef %97, i32 noundef %98, i8 noundef zeroext %99, ptr noundef %100)
  br label %101

101:                                              ; preds = %93, %85
  br label %102

102:                                              ; preds = %101, %46
  %103 = load i8, ptr %16, align 1
  %104 = zext i8 %103 to i32
  %105 = add i32 2, %104
  %106 = load i8, ptr %11, align 1
  %107 = zext i8 %106 to i32
  %108 = sub i32 %107, %105
  %109 = trunc i32 %108 to i8
  store i8 %109, ptr %11, align 1
  %110 = load i8, ptr %16, align 1
  %111 = zext i8 %110 to i32
  %112 = load i32, ptr %10, align 4
  %113 = add i32 %112, %111
  store i32 %113, ptr %10, align 4
  br label %17, !llvm.loop !6

114:                                              ; preds = %17
  call void @llvm.lifetime.end.p0(i64 1, ptr %16) #13
  call void @llvm.lifetime.end.p0(i64 8, ptr %15) #13
  call void @llvm.lifetime.end.p0(i64 1, ptr %14) #13
  call void @llvm.lifetime.end.p0(i64 8, ptr %13) #13
  ret void
}

; Function Attrs: null_pointer_is_valid sspstrong uwtable
define hidden void @dis_field_udh(ptr noundef %0, ptr noundef %1, ptr noundef %2, ptr noundef %3, ptr noundef %4, ptr noundef %5, i32 noundef %6, ptr noundef %7, ptr noundef %8) #0 {
  %10 = alloca ptr, align 8
  %11 = alloca ptr, align 8
  %12 = alloca ptr, align 8
  %13 = alloca ptr, align 8
  %14 = alloca ptr, align 8
  %15 = alloca ptr, align 8
  %16 = alloca i32, align 4
  %17 = alloca ptr, align 8
  %18 = alloca ptr, align 8
  %19 = alloca i8, align 1
  %20 = alloca ptr, align 8
  store ptr %0, ptr %10, align 8
  store ptr %1, ptr %11, align 8
  store ptr %2, ptr %12, align 8
  store ptr %3, ptr %13, align 8
  store ptr %4, ptr %14, align 8
  store ptr %5, ptr %15, align 8
  store i32 %6, ptr %16, align 4
  store ptr %7, ptr %17, align 8
  store ptr %8, ptr %18, align 8
  call void @llvm.lifetime.start.p0(i64 1, ptr %19) #13
  call void @llvm.lifetime.start.p0(i64 8, ptr %20) #13
  %21 = load ptr, ptr %10, align 8
  %22 = load ptr, ptr %13, align 8
  %23 = load i32, ptr %22, align 4
  %24 = call zeroext i8 @tvb_get_uint8(ptr noundef %21, i32 noundef %23)
  store i8 %24, ptr %19, align 1
  %25 = load ptr, ptr %12, align 8
  %26 = load ptr, ptr %10, align 8
  %27 = load ptr, ptr %13, align 8
  %28 = load i32, ptr %27, align 4
  %29 = load i8, ptr %19, align 1
  %30 = zext i8 %29 to i32
  %31 = add i32 %30, 1
  %32 = load i32, ptr @ett_udh, align 4
  %33 = call ptr @proto_tree_add_subtree(ptr noundef %25, ptr noundef %26, i32 noundef %28, i32 noundef %31, i32 noundef %32, ptr noundef null, ptr noundef @.str.6)
  store ptr %33, ptr %20, align 8
  %34 = load ptr, ptr %20, align 8
  %35 = load i32, ptr @hf_gsm_sms_dis_field_udh_user_data_header_length, align 4
  %36 = load ptr, ptr %10, align 8
  %37 = load ptr, ptr %13, align 8
  %38 = load i32, ptr %37, align 4
  %39 = call ptr @proto_tree_add_item(ptr noundef %34, i32 noundef %35, ptr noundef %36, i32 noundef %38, i32 noundef 1, i32 noundef 0)
  %40 = load ptr, ptr %13, align 8
  %41 = load i32, ptr %40, align 4
  %42 = add i32 %41, 1
  store i32 %42, ptr %40, align 4
  %43 = load ptr, ptr %14, align 8
  %44 = load i32, ptr %43, align 4
  %45 = add i32 %44, -1
  store i32 %45, ptr %43, align 4
  %46 = load ptr, ptr %10, align 8
  %47 = load ptr, ptr %11, align 8
  %48 = load ptr, ptr %20, align 8
  %49 = load ptr, ptr %13, align 8
  %50 = load i32, ptr %49, align 4
  %51 = load i8, ptr %19, align 1
  %52 = load ptr, ptr %18, align 8
  call void @dis_field_ud_iei(ptr noundef %46, ptr noundef %47, ptr noundef %48, i32 noundef %50, i8 noundef zeroext %51, ptr noundef %52)
  %53 = load i8, ptr %19, align 1
  %54 = zext i8 %53 to i32
  %55 = load ptr, ptr %13, align 8
  %56 = load i32, ptr %55, align 4
  %57 = add i32 %56, %54
  store i32 %57, ptr %55, align 4
  %58 = load i8, ptr %19, align 1
  %59 = zext i8 %58 to i32
  %60 = load ptr, ptr %14, align 8
  %61 = load i32, ptr %60, align 4
  %62 = sub i32 %61, %59
  store i32 %62, ptr %60, align 4
  %63 = load i32, ptr %16, align 4
  %64 = icmp eq i32 %63, 1
  br i1 %64, label %68, label %65

65:                                               ; preds = %9
  %66 = load i32, ptr %16, align 4
  %67 = icmp eq i32 %66, 2
  br i1 %67, label %68, label %122

68:                                               ; preds = %65, %9
  %69 = load i8, ptr %19, align 1
  %70 = zext i8 %69 to i32
  %71 = mul i32 %70, 8
  %72 = srem i32 %71, 7
  %73 = sub i32 6, %72
  %74 = trunc i32 %73 to i8
  %75 = load ptr, ptr %17, align 8
  store i8 %74, ptr %75, align 1
  %76 = load i8, ptr %19, align 1
  %77 = zext i8 %76 to i32
  %78 = add i32 %77, 1
  %79 = mul i32 %78, 8
  %80 = load ptr, ptr %17, align 8
  %81 = load i8, ptr %80, align 1
  %82 = zext i8 %81 to i32
  %83 = add i32 %79, %82
  %84 = sdiv i32 %83, 7
  %85 = load ptr, ptr %15, align 8
  %86 = load i8, ptr %85, align 1
  %87 = zext i8 %86 to i32
  %88 = sub i32 %87, %84
  %89 = trunc i32 %88 to i8
  store i8 %89, ptr %85, align 1
  %90 = load ptr, ptr %17, align 8
  %91 = load i8, ptr %90, align 1
  %92 = icmp ne i8 %91, 0
  br i1 %92, label %93, label %121

93:                                               ; preds = %68
  %94 = load i32, ptr %16, align 4
  %95 = icmp eq i32 %94, 1
  br i1 %95, label %96, label %108

96:                                               ; preds = %93
  %97 = load ptr, ptr %20, align 8
  %98 = load ptr, ptr %17, align 8
  %99 = load i8, ptr %98, align 1
  %100 = zext i8 %99 to i64
  %101 = getelementptr [7 x ptr], ptr @dis_field_udh.fill_bits_mask_gsm, i64 0, i64 %100
  %102 = load ptr, ptr %101, align 8
  %103 = load i32, ptr %102, align 4
  %104 = load ptr, ptr %10, align 8
  %105 = load ptr, ptr %13, align 8
  %106 = load i32, ptr %105, align 4
  %107 = call ptr @proto_tree_add_item(ptr noundef %97, i32 noundef %103, ptr noundef %104, i32 noundef %106, i32 noundef 1, i32 noundef 0)
  br label %120

108:                                              ; preds = %93
  %109 = load ptr, ptr %20, align 8
  %110 = load ptr, ptr %17, align 8
  %111 = load i8, ptr %110, align 1
  %112 = zext i8 %111 to i64
  %113 = getelementptr [7 x ptr], ptr @dis_field_udh.fill_bits_mask_ascii, i64 0, i64 %112
  %114 = load ptr, ptr %113, align 8
  %115 = load i32, ptr %114, align 4
  %116 = load ptr, ptr %10, align 8
  %117 = load ptr, ptr %13, align 8
  %118 = load i32, ptr %117, align 4
  %119 = call ptr @proto_tree_add_item(ptr noundef %109, i32 noundef %115, ptr noundef %116, i32 noundef %118, i32 noundef 1, i32 noundef 0)
  br label %120

120:                                              ; preds = %108, %96
  br label %121

121:                                              ; preds = %120, %68
  br label %131

122:                                              ; preds = %65
  %123 = load i8, ptr %19, align 1
  %124 = zext i8 %123 to i32
  %125 = add i32 %124, 1
  %126 = load ptr, ptr %15, align 8
  %127 = load i8, ptr %126, align 1
  %128 = zext i8 %127 to i32
  %129 = sub i32 %128, %125
  %130 = trunc i32 %129 to i8
  store i8 %130, ptr %126, align 1
  br label %131

131:                                              ; preds = %122, %121
  call void @llvm.lifetime.end.p0(i64 8, ptr %20) #13
  call void @llvm.lifetime.end.p0(i64 1, ptr %19) #13
  ret void
}