; Function Attrs: null_pointer_is_valid sspstrong uwtable
define hidden void @dis_field_udh(ptr noundef %0, ptr noundef %1, ptr noundef %2, ptr noundef captures(none) %3, ptr noundef captures(none) %4, ptr noundef captures(none) %5, i32 noundef %6, ptr noundef captures(none) %7, ptr noundef %8) local_unnamed_addr #0 {
  %10 = load i32, ptr %3, align 4
  %11 = tail call zeroext i8 @tvb_get_uint8(ptr noundef %0, i32 noundef %10)
  %12 = load i32, ptr %3, align 4
  %13 = zext i8 %11 to i32
  %14 = add nuw nsw i32 %13, 1
  %15 = load i32, ptr @ett_udh, align 4
  %16 = tail call ptr @proto_tree_add_subtree(ptr noundef %2, ptr noundef %0, i32 noundef %12, i32 noundef %14, i32 noundef %15, ptr noundef null, ptr noundef nonnull @.str.6)
  %17 = load i32, ptr @hf_gsm_sms_dis_field_udh_user_data_header_length, align 4
  %18 = load i32, ptr %3, align 4
  %19 = tail call ptr @proto_tree_add_item(ptr noundef %16, i32 noundef %17, ptr noundef %0, i32 noundef %18, i32 noundef 1, i32 noundef 0)
  %20 = load i32, ptr %3, align 4
  %21 = add i32 %20, 1
  store i32 %21, ptr %3, align 4
  %22 = load i32, ptr %4, align 4
  %23 = add i32 %22, -1
  store i32 %23, ptr %4, align 4
  %24 = load i32, ptr %3, align 4
  %25 = icmp ugt i8 %11, 1
  br i1 %25, label %.lr.ph.i, label %dis_field_ud_iei.exit

.lr.ph.i:                                         ; preds = %9, %68
  %.041.i = phi i32 [ %71, %68 ], [ %24, %9 ]
  %.03640.i = phi i8 [ %70, %68 ], [ %11, %9 ]
  %26 = tail call zeroext i8 @tvb_get_uint8(ptr noundef %0, i32 noundef %.041.i)
  %27 = zext i8 %26 to i32
  switch i8 %26, label %47 [
    i8 0, label %28
    i8 1, label %29
    i8 4, label %30
    i8 5, label %31
    i8 6, label %32
    i8 7, label %33
    i8 8, label %34
    i8 10, label %35
    i8 11, label %36
    i8 12, label %37
    i8 13, label %38
    i8 14, label %39
    i8 15, label %40
    i8 16, label %41
    i8 17, label %42
    i8 18, label %43
    i8 19, label %44
    i8 36, label %45
    i8 37, label %46
  ]

28:                                               ; preds = %.lr.ph.i
  br label %47

29:                                               ; preds = %.lr.ph.i
  br label %47

30:                                               ; preds = %.lr.ph.i
  br label %47

31:                                               ; preds = %.lr.ph.i
  br label %47

32:                                               ; preds = %.lr.ph.i
  br label %47

33:                                               ; preds = %.lr.ph.i
  br label %47

34:                                               ; preds = %.lr.ph.i
  br label %47

35:                                               ; preds = %.lr.ph.i
  br label %47

36:                                               ; preds = %.lr.ph.i
  br label %47

37:                                               ; preds = %.lr.ph.i
  br label %47

38:                                               ; preds = %.lr.ph.i
  br label %47

39:                                               ; preds = %.lr.ph.i
  br label %47

40:                                               ; preds = %.lr.ph.i
  br label %47

41:                                               ; preds = %.lr.ph.i
  br label %47

42:                                               ; preds = %.lr.ph.i
  br label %47

43:                                               ; preds = %.lr.ph.i
  br label %47

44:                                               ; preds = %.lr.ph.i
  br label %47

45:                                               ; preds = %.lr.ph.i
  br label %47

46:                                               ; preds = %.lr.ph.i
  br label %47

47:                                               ; preds = %46, %45, %44, %43, %42, %41, %40, %39, %38, %37, %36, %35, %34, %33, %32, %31, %30, %29, %28, %.lr.ph.i
  %48 = phi i1 [ true, %.lr.ph.i ], [ false, %46 ], [ false, %45 ], [ false, %44 ], [ false, %43 ], [ false, %42 ], [ false, %41 ], [ false, %40 ], [ false, %39 ], [ false, %38 ], [ false, %37 ], [ false, %36 ], [ false, %35 ], [ false, %34 ], [ false, %33 ], [ false, %32 ], [ false, %31 ], [ false, %30 ], [ false, %29 ], [ false, %28 ]
  %.037.i = phi ptr [ null, %.lr.ph.i ], [ @dis_iei_lang_ls, %46 ], [ @dis_iei_lang_ss, %45 ], [ @dis_iei_upi, %44 ], [ @dis_iei_vp, %43 ], [ @dis_iei_sp, %42 ], [ @dis_iei_lp, %41 ], [ @dis_iei_sa, %40 ], [ @dis_iei_la, %39 ], [ @dis_iei_pa, %38 ], [ @dis_iei_uds, %37 ], [ @dis_iei_ps, %36 ], [ @dis_iei_tf, %35 ], [ @dis_iei_csm16, %34 ], [ @dis_iei_udh_si, %33 ], [ @dis_iei_scp, %32 ], [ @dis_iei_apa_16bit, %31 ], [ @dis_iei_apa_8bit, %30 ], [ @dis_iei_spe_sms_msg_ind, %29 ], [ @dis_iei_csm8, %28 ]
  %49 = add i32 %.041.i, 1
  %50 = tail call zeroext i8 @tvb_get_uint8(ptr noundef %0, i32 noundef %49)
  %51 = zext i8 %50 to i32
  %52 = add nuw nsw i32 %51, 2
  %53 = zext i8 %26 to i64
  %54 = getelementptr [256 x i32], ptr @ett_udh_ieis, i64 0, i64 %53
  %55 = load i32, ptr %54, align 4
  %56 = tail call ptr @rval_to_str_const(i32 noundef %27, ptr noundef nonnull @gsm_sms_tp_ud_ie_id_rvals, ptr noundef nonnull @.str.116)
  %57 = tail call ptr (ptr, ptr, i32, i32, i32, ptr, ptr, ...) @proto_tree_add_subtree_format(ptr noundef %16, ptr noundef %0, i32 noundef %.041.i, i32 noundef %52, i32 noundef %55, ptr noundef null, ptr noundef nonnull @.str.333, ptr noundef %56)
  %58 = load i32, ptr @hf_gsm_sms_ie_identifier, align 4
  %59 = tail call ptr @proto_tree_add_item(ptr noundef %57, i32 noundef %58, ptr noundef %0, i32 noundef %.041.i, i32 noundef 1, i32 noundef 0)
  %60 = load i32, ptr @hf_gsm_sms_dis_field_ud_iei_length, align 4
  %61 = tail call ptr @proto_tree_add_item(ptr noundef %57, i32 noundef %60, ptr noundef %0, i32 noundef %49, i32 noundef 1, i32 noundef 0)
  %62 = add i32 %.041.i, 2
  %.not.i = icmp eq i8 %50, 0
  br i1 %.not.i, label %68, label %63

63:                                               ; preds = %47
  br i1 %48, label %64, label %67

64:                                               ; preds = %63
  %65 = load i32, ptr @hf_gsm_sms_ie_data, align 4
  %66 = tail call ptr @proto_tree_add_item(ptr noundef %57, i32 noundef %65, ptr noundef %0, i32 noundef %62, i32 noundef %51, i32 noundef 0)
  br label %68

67:                                               ; preds = %63
  tail call void %.037.i(ptr noundef %0, ptr noundef %1, ptr noundef %57, i32 noundef %62, i8 noundef zeroext %50, ptr noundef %8)
  br label %68

68:                                               ; preds = %67, %64, %47
  %69 = trunc i32 %52 to i8
  %70 = sub i8 %.03640.i, %69
  %71 = add i32 %62, %51
  %72 = icmp ugt i8 %70, 1
  br i1 %72, label %.lr.ph.i, label %dis_field_ud_iei.exit.loopexit, !llvm.loop !6

dis_field_ud_iei.exit.loopexit:                   ; preds = %68
  %.pre = load i32, ptr %3, align 4
  br label %dis_field_ud_iei.exit

dis_field_ud_iei.exit:                            ; preds = %dis_field_ud_iei.exit.loopexit, %9
  %73 = phi i32 [ %.pre, %dis_field_ud_iei.exit.loopexit ], [ %24, %9 ]
  %74 = add i32 %73, %13
  store i32 %74, ptr %3, align 4
  %75 = load i32, ptr %4, align 4
  %76 = sub i32 %75, %13
  store i32 %76, ptr %4, align 4
  %77 = icmp eq i32 %6, 1
  %78 = add i32 %6, -1
  %or.cond = icmp ult i32 %78, 2
  br i1 %or.cond, label %79, label %105

79:                                               ; preds = %dis_field_ud_iei.exit
  %80 = shl nuw nsw i32 %13, 3
  %81 = urem i32 %80, 7
  %82 = trunc nuw nsw i32 %81 to i8
  %83 = sub nuw nsw i8 6, %82
  store i8 %83, ptr %7, align 1
  %84 = shl nuw nsw i32 %14, 3
  %85 = zext nneg i8 %83 to i32
  %86 = or disjoint i32 %84, %85
  %87 = udiv i32 %86, 7
  %88 = load i8, ptr %5, align 1
  %89 = trunc i32 %87 to i8
  %90 = sub i8 %88, %89
  store i8 %90, ptr %5, align 1
  %91 = load i8, ptr %7, align 1
  %.not = icmp eq i8 %91, 0
  br i1 %.not, label %109, label %92

92:                                               ; preds = %79
  %93 = zext i8 %91 to i64
  %94 = load i32, ptr %3, align 4
  br i1 %77, label %95, label %100

95:                                               ; preds = %92
  %96 = getelementptr [7 x ptr], ptr @dis_field_udh.fill_bits_mask_gsm, i64 0, i64 %93
  %97 = load ptr, ptr %96, align 8
  %98 = load i32, ptr %97, align 4
  %99 = tail call ptr @proto_tree_add_item(ptr noundef %16, i32 noundef %98, ptr noundef %0, i32 noundef %94, i32 noundef 1, i32 noundef 0)
  br label %109

100:                                              ; preds = %92
  %101 = getelementptr [7 x ptr], ptr @dis_field_udh.fill_bits_mask_ascii, i64 0, i64 %93
  %102 = load ptr, ptr %101, align 8
  %103 = load i32, ptr %102, align 4
  %104 = tail call ptr @proto_tree_add_item(ptr noundef %16, i32 noundef %103, ptr noundef %0, i32 noundef %94, i32 noundef 1, i32 noundef 0)
  br label %109

105:                                              ; preds = %dis_field_ud_iei.exit
  %106 = load i8, ptr %5, align 1
  %107 = trunc i32 %14 to i8
  %108 = sub i8 %106, %107
  store i8 %108, ptr %5, align 1
  br label %109

109:                                              ; preds = %79, %100, %95, %105
  ret void
}